target datalayout = "e-m:e-p270:32:32-p271:32:32-p272:64:64-i64:64-i128:128-f80:128-n8:16:32:64-S128"
target triple = "x86_64-pc-linux-gnu"

%struct.b2Vec2 = type { float, float }
%struct.b2Filter = type { i64, i64, i32 }
%struct.b2Shape = type { i32, i32, i32, i32, i32, i32, float, float, float, float, float, i32, %struct.b2AABB, %struct.b2AABB, %struct.b2Vec2, i32, %struct.b2Filter, ptr, i32, %union.anon.0, i16, i8, i8, i8, i8 }
%struct.b2AABB = type { %struct.b2Vec2, %struct.b2Vec2 }
%union.anon.0 = type { %struct.b2Polygon }
%struct.b2Polygon = type { [8 x %struct.b2Vec2], [8 x %struct.b2Vec2], %struct.b2Vec2, float, i32 }
%struct.b2Circle = type { %struct.b2Vec2, float }
%struct.b2Capsule = type { %struct.b2Vec2, %struct.b2Vec2, float }
%struct.b2Segment = type { %struct.b2Vec2, %struct.b2Vec2 }
%struct.b2ChainSegment = type { %struct.b2Vec2, %struct.b2Segment, %struct.b2Vec2, i32 }

; Function Attrs: inlinehint nounwind uwtable
define internal float @b2Length(<2 x float> %0) #5 {
  %2 = alloca %struct.b2Vec2, align 4
  store <2 x float> %0, ptr %2, align 4
  %3 = getelementptr inbounds nuw %struct.b2Vec2, ptr %2, i32 0, i32 0
  %4 = load float, ptr %3, align 4, !tbaa !55
  %5 = getelementptr inbounds nuw %struct.b2Vec2, ptr %2, i32 0, i32 0
  %6 = load float, ptr %5, align 4, !tbaa !55
  %7 = fmul float %4, %6
  %8 = getelementptr inbounds nuw %struct.b2Vec2, ptr %2, i32 0, i32 1
  %9 = load float, ptr %8, align 4, !tbaa !56
  %10 = getelementptr inbounds nuw %struct.b2Vec2, ptr %2, i32 0, i32 1
  %11 = load float, ptr %10, align 4, !tbaa !56
  %12 = fmul float %9, %11
  %13 = fadd float %7, %12
  %14 = call float @sqrtf(float noundef %13) #9, !tbaa !3
  ret float %14
}

; Function Attrs: inlinehint nounwind uwtable
define internal <2 x float> @b2Sub(<2 x float> %0, <2 x float> %1) #5 {
  %3 = alloca %struct.b2Vec2, align 4
  %4 = alloca %struct.b2Vec2, align 4
  %5 = alloca %struct.b2Vec2, align 4
  store <2 x float> %0, ptr %4, align 4
  store <2 x float> %1, ptr %5, align 4
  %6 = getelementptr inbounds nuw %struct.b2Vec2, ptr %3, i32 0, i32 0
  %7 = getelementptr inbounds nuw %struct.b2Vec2, ptr %4, i32 0, i32 0
  %8 = load float, ptr %7, align 4, !tbaa !55
  %9 = getelementptr inbounds nuw %struct.b2Vec2, ptr %5, i32 0, i32 0
  %10 = load float, ptr %9, align 4, !tbaa !55
  %11 = fsub float %8, %10
  store float %11, ptr %6, align 4, !tbaa !55
  %12 = getelementptr inbounds nuw %struct.b2Vec2, ptr %3, i32 0, i32 1
  %13 = getelementptr inbounds nuw %struct.b2Vec2, ptr %4, i32 0, i32 1
  %14 = load float, ptr %13, align 4, !tbaa !56
  %15 = getelementptr inbounds nuw %struct.b2Vec2, ptr %5, i32 0, i32 1
  %16 = load float, ptr %15, align 4, !tbaa !56
  %17 = fsub float %14, %16
  store float %17, ptr %12, align 4, !tbaa !56
  %18 = load <2 x float>, ptr %3, align 4
  ret <2 x float> %18
}

; Function Attrs: nounwind uwtable
define hidden float @b2GetShapePerimeter(ptr noundef %0) #3 {
  %2 = alloca float, align 4
  %3 = alloca ptr, align 8
  %4 = alloca %struct.b2Vec2, align 4
  %5 = alloca ptr, align 8
  %6 = alloca i32, align 4
  %7 = alloca float, align 4
  %8 = alloca %struct.b2Vec2, align 4
  %9 = alloca i32, align 4
  %10 = alloca %struct.b2Vec2, align 4
  %11 = alloca %struct.b2Vec2, align 4
  %12 = alloca %struct.b2Vec2, align 4
  %13 = alloca %struct.b2Vec2, align 4
  store ptr %0, ptr %3, align 8, !tbaa !34
  %14 = load ptr, ptr %3, align 8, !tbaa !34
  %15 = getelementptr inbounds nuw %struct.b2Shape, ptr %14, i32 0, i32 5
  %16 = load i32, ptr %15, align 4, !tbaa !201
  switch i32 %16, label %111 [
    i32 1, label %17
    i32 0, label %36
    i32 3, label %42
    i32 2, label %83
    i32 4, label %96
  ]

17:                                               ; preds = %1
  %18 = load ptr, ptr %3, align 8, !tbaa !34
  %19 = getelementptr inbounds nuw %struct.b2Shape, ptr %18, i32 0, i32 19
  %20 = getelementptr inbounds nuw %struct.b2Capsule, ptr %19, i32 0, i32 0
  %21 = load ptr, ptr %3, align 8, !tbaa !34
  %22 = getelementptr inbounds nuw %struct.b2Shape, ptr %21, i32 0, i32 19
  %23 = getelementptr inbounds nuw %struct.b2Capsule, ptr %22, i32 0, i32 1
  %24 = load <2 x float>, ptr %20, align 4
  %25 = load <2 x float>, ptr %23, align 4
  %26 = call <2 x float> @b2Sub(<2 x float> %24, <2 x float> %25)
  store <2 x float> %26, ptr %4, align 4
  %27 = load <2 x float>, ptr %4, align 4
  %28 = call float @b2Length(<2 x float> %27)
  %29 = fmul float 2.000000e+00, %28
  %30 = load ptr, ptr %3, align 8, !tbaa !34
  %31 = getelementptr inbounds nuw %struct.b2Shape, ptr %30, i32 0, i32 19
  %32 = getelementptr inbounds nuw %struct.b2Capsule, ptr %31, i32 0, i32 2
  %33 = load float, ptr %32, align 4, !tbaa !198
  %34 = fmul float 0x401921FB60000000, %33
  %35 = fadd float %29, %34
  store float %35, ptr %2, align 4
  br label %112

36:                                               ; preds = %1
  %37 = load ptr, ptr %3, align 8, !tbaa !34
  %38 = getelementptr inbounds nuw %struct.b2Shape, ptr %37, i32 0, i32 19
  %39 = getelementptr inbounds nuw %struct.b2Circle, ptr %38, i32 0, i32 1
  %40 = load float, ptr %39, align 4, !tbaa !198
  %41 = fmul float 0x401921FB60000000, %40
  store float %41, ptr %2, align 4
  br label %112

42:                                               ; preds = %1
  call void @llvm.lifetime.start.p0(i64 8, ptr %5) #9
  %43 = load ptr, ptr %3, align 8, !tbaa !34
  %44 = getelementptr inbounds nuw %struct.b2Shape, ptr %43, i32 0, i32 19
  %45 = getelementptr inbounds nuw %struct.b2Polygon, ptr %44, i32 0, i32 0
  %46 = getelementptr inbounds [8 x %struct.b2Vec2], ptr %45, i64 0, i64 0
  store ptr %46, ptr %5, align 8, !tbaa !168
  call void @llvm.lifetime.start.p0(i64 4, ptr %6) #9
  %47 = load ptr, ptr %3, align 8, !tbaa !34
  %48 = getelementptr inbounds nuw %struct.b2Shape, ptr %47, i32 0, i32 19
  %49 = getelementptr inbounds nuw %struct.b2Polygon, ptr %48, i32 0, i32 4
  %50 = load i32, ptr %49, align 4, !tbaa !198
  store i32 %50, ptr %6, align 4, !tbaa !3
  call void @llvm.lifetime.start.p0(i64 4, ptr %7) #9
  %51 = load ptr, ptr %3, align 8, !tbaa !34
  %52 = getelementptr inbounds nuw %struct.b2Shape, ptr %51, i32 0, i32 19
  %53 = getelementptr inbounds nuw %struct.b2Polygon, ptr %52, i32 0, i32 3
  %54 = load float, ptr %53, align 4, !tbaa !198
  %55 = fmul float 0x401921FB60000000, %54
  store float %55, ptr %7, align 4, !tbaa !50
  call void @llvm.lifetime.start.p0(i64 8, ptr %8) #9
  %56 = load ptr, ptr %5, align 8, !tbaa !168
  %57 = load i32, ptr %6, align 4, !tbaa !3
  %58 = sub nsw i32 %57, 1
  %59 = sext i32 %58 to i64
  %60 = getelementptr inbounds %struct.b2Vec2, ptr %56, i64 %59
  call void @llvm.memcpy.p0.p0.i64(ptr align 4 %8, ptr align 4 %60, i64 8, i1 false), !tbaa.struct !173
  call void @llvm.lifetime.start.p0(i64 4, ptr %9) #9
  store i32 0, ptr %9, align 4, !tbaa !3
  br label %61

61:                                               ; preds = %78, %42
  %62 = load i32, ptr %9, align 4, !tbaa !3
  %63 = load i32, ptr %6, align 4, !tbaa !3
  %64 = icmp slt i32 %62, %63
  br i1 %64, label %66, label %65

65:                                               ; preds = %61
  call void @llvm.lifetime.end.p0(i64 4, ptr %9) #9
  br label %81

66:                                               ; preds = %61
  call void @llvm.lifetime.start.p0(i64 8, ptr %10) #9
  %67 = load ptr, ptr %5, align 8, !tbaa !168
  %68 = load i32, ptr %9, align 4, !tbaa !3
  %69 = sext i32 %68 to i64
  %70 = getelementptr inbounds %struct.b2Vec2, ptr %67, i64 %69
  call void @llvm.memcpy.p0.p0.i64(ptr align 4 %10, ptr align 4 %70, i64 8, i1 false), !tbaa.struct !173
  %71 = load <2 x float>, ptr %10, align 4
  %72 = load <2 x float>, ptr %8, align 4
  %73 = call <2 x float> @b2Sub(<2 x float> %71, <2 x float> %72)
  store <2 x float> %73, ptr %11, align 4
  %74 = load <2 x float>, ptr %11, align 4
  %75 = call float @b2Length(<2 x float> %74)
  %76 = load float, ptr %7, align 4, !tbaa !50
  %77 = fadd float %76, %75
  store float %77, ptr %7, align 4, !tbaa !50
  call void @llvm.memcpy.p0.p0.i64(ptr align 4 %8, ptr align 4 %10, i64 8, i1 false), !tbaa.struct !173
  call void @llvm.lifetime.end.p0(i64 8, ptr %10) #9
  br label %78

78:                                               ; preds = %66
  %79 = load i32, ptr %9, align 4, !tbaa !3
  %80 = add nsw i32 %79, 1
  store i32 %80, ptr %9, align 4, !tbaa !3
  br label %61, !llvm.loop !232

81:                                               ; preds = %65
  %82 = load float, ptr %7, align 4, !tbaa !50
  store float %82, ptr %2, align 4
  call void @llvm.lifetime.end.p0(i64 8, ptr %8) #9
  call void @llvm.lifetime.end.p0(i64 4, ptr %7) #9
  call void @llvm.lifetime.end.p0(i64 4, ptr %6) #9
  call void @llvm.lifetime.end.p0(i64 8, ptr %5) #9
  br label %112

83:                                               ; preds = %1
  %84 = load ptr, ptr %3, align 8, !tbaa !34
  %85 = getelementptr inbounds nuw %struct.b2Shape, ptr %84, i32 0, i32 19
  %86 = getelementptr inbounds nuw %struct.b2Segment, ptr %85, i32 0, i32 0
  %87 = load ptr, ptr %3, align 8, !tbaa !34
  %88 = getelementptr inbounds nuw %struct.b2Shape, ptr %87, i32 0, i32 19
  %89 = getelementptr inbounds nuw %struct.b2Segment, ptr %88, i32 0, i32 1
  %90 = load <2 x float>, ptr %86, align 4
  %91 = load <2 x float>, ptr %89, align 4
  %92 = call <2 x float> @b2Sub(<2 x float> %90, <2 x float> %91)
  store <2 x float> %92, ptr %12, align 4
  %93 = load <2 x float>, ptr %12, align 4
  %94 = call float @b2Length(<2 x float> %93)
  %95 = fmul float 2.000000e+00, %94
  store float %95, ptr %2, align 4
  br label %112

96:                                               ; preds = %1
  %97 = load ptr, ptr %3, align 8, !tbaa !34
  %98 = getelementptr inbounds nuw %struct.b2Shape, ptr %97, i32 0, i32 19
  %99 = getelementptr inbounds nuw %struct.b2ChainSegment, ptr %98, i32 0, i32 1
  %100 = getelementptr inbounds nuw %struct.b2Segment, ptr %99, i32 0, i32 0
  %101 = load ptr, ptr %3, align 8, !tbaa !34
  %102 = getelementptr inbounds nuw %struct.b2Shape, ptr %101, i32 0, i32 19
  %103 = getelementptr inbounds nuw %struct.b2ChainSegment, ptr %102, i32 0, i32 1
  %104 = getelementptr inbounds nuw %struct.b2Segment, ptr %103, i32 0, i32 1
  %105 = load <2 x float>, ptr %100, align 4
  %106 = load <2 x float>, ptr %104, align 4
  %107 = call <2 x float> @b2Sub(<2 x float> %105, <2 x float> %106)
  store <2 x float> %107, ptr %13, align 4
  %108 = load <2 x float>, ptr %13, align 4
  %109 = call float @b2Length(<2 x float> %108)
  %110 = fmul float 2.000000e+00, %109
  store float %110, ptr %2, align 4
  br label %112

111:                                              ; preds = %1
  store float 0.000000e+00, ptr %2, align 4
  br label %112

112:                                              ; preds = %111, %96, %83, %81, %36, %17
  %113 = load float, ptr %2, align 4
  ret float %113
}