; Function Attrs: nofree norecurse nosync nounwind memory(argmem: read) uwtable
define hidden float @b2GetShapePerimeter(ptr noundef readonly captures(none) %0) local_unnamed_addr #7 {
  %2 = getelementptr inbounds nuw i8, ptr %0, i64 20
  %3 = load i32, ptr %2, align 4, !tbaa !171
  switch i32 %3, label %.loopexit [
    i32 1, label %4
    i32 0, label %20
    i32 3, label %24
    i32 2, label %43
    i32 4, label %55
  ]

4:                                                ; preds = %1
  %5 = getelementptr inbounds nuw i8, ptr %0, i64 132
  %6 = getelementptr inbounds nuw i8, ptr %0, i64 140
  %7 = load <2 x float>, ptr %5, align 4
  %8 = load <2 x float>, ptr %6, align 4
  %9 = fsub <2 x float> %7, %8
  %10 = fsub <2 x float> %7, %8
  %11 = fmul <2 x float> %9, %9
  %12 = fmul <2 x float> %10, %10
  %shift = shufflevector <2 x float> %12, <2 x float> poison, <2 x i32> <i32 1, i32 poison>
  %13 = fadd <2 x float> %11, %shift
  %14 = extractelement <2 x float> %13, i64 0
  %sqrt.i = tail call float @llvm.sqrt.f32(float %14)
  %15 = fmul float %sqrt.i, 2.000000e+00
  %16 = getelementptr inbounds nuw i8, ptr %0, i64 148
  %17 = load float, ptr %16, align 4, !tbaa !168
  %18 = fmul float %17, 0x401921FB60000000
  %19 = fadd float %18, %15
  br label %.loopexit

20:                                               ; preds = %1
  %21 = getelementptr inbounds nuw i8, ptr %0, i64 140
  %22 = load float, ptr %21, align 4, !tbaa !168
  %23 = fmul float %22, 0x401921FB60000000
  br label %.loopexit

24:                                               ; preds = %1
  %25 = getelementptr inbounds nuw i8, ptr %0, i64 132
  %26 = getelementptr inbounds nuw i8, ptr %0, i64 272
  %27 = load i32, ptr %26, align 4, !tbaa !168
  %28 = getelementptr inbounds nuw i8, ptr %0, i64 268
  %29 = load float, ptr %28, align 4, !tbaa !168
  %30 = fmul float %29, 0x401921FB60000000
  %31 = icmp sgt i32 %27, 0
  br i1 %31, label %.lr.ph.preheader, label %.loopexit

.lr.ph.preheader:                                 ; preds = %24
  %32 = zext nneg i32 %27 to i64
  %33 = getelementptr %struct.b2Vec2, ptr %25, i64 %32
  %34 = getelementptr i8, ptr %33, i64 -8
  %.sroa.07.0.copyload = load <2 x float>, ptr %34, align 4
  %wide.trip.count = zext nneg i32 %27 to i64
  br label %.lr.ph

.lr.ph:                                           ; preds = %.lr.ph.preheader, %.lr.ph
  %indvars.iv = phi i64 [ 0, %.lr.ph.preheader ], [ %indvars.iv.next, %.lr.ph ]
  %.02760 = phi float [ %30, %.lr.ph.preheader ], [ %42, %.lr.ph ]
  %.sroa.07.059 = phi <2 x float> [ %.sroa.07.0.copyload, %.lr.ph.preheader ], [ %.sroa.03.0.copyload, %.lr.ph ]
  %35 = getelementptr inbounds nuw %struct.b2Vec2, ptr %25, i64 %indvars.iv
  %.sroa.03.0.copyload = load <2 x float>, ptr %35, align 4
  %36 = fsub <2 x float> %.sroa.03.0.copyload, %.sroa.07.059
  %37 = fsub <2 x float> %.sroa.03.0.copyload, %.sroa.07.059
  %38 = fmul <2 x float> %36, %36
  %39 = fmul <2 x float> %37, %37
  %shift62 = shufflevector <2 x float> %39, <2 x float> poison, <2 x i32> <i32 1, i32 poison>
  %40 = fadd <2 x float> %38, %shift62
  %41 = extractelement <2 x float> %40, i64 0
  %sqrt.i39 = tail call float @llvm.sqrt.f32(float %41)
  %42 = fadd float %.02760, %sqrt.i39
  %indvars.iv.next = add nuw nsw i64 %indvars.iv, 1
  %exitcond.not = icmp eq i64 %indvars.iv.next, %wide.trip.count
  br i1 %exitcond.not, label %.loopexit, label %.lr.ph, !llvm.loop !197

43:                                               ; preds = %1
  %44 = getelementptr inbounds nuw i8, ptr %0, i64 132
  %45 = getelementptr inbounds nuw i8, ptr %0, i64 140
  %46 = load <2 x float>, ptr %44, align 4
  %47 = load <2 x float>, ptr %45, align 4
  %48 = fsub <2 x float> %46, %47
  %49 = fsub <2 x float> %46, %47
  %50 = fmul <2 x float> %48, %48
  %51 = fmul <2 x float> %49, %49
  %shift63 = shufflevector <2 x float> %51, <2 x float> poison, <2 x i32> <i32 1, i32 poison>
  %52 = fadd <2 x float> %50, %shift63
  %53 = extractelement <2 x float> %52, i64 0
  %sqrt.i48 = tail call float @llvm.sqrt.f32(float %53)
  %54 = fmul float %sqrt.i48, 2.000000e+00
  br label %.loopexit

55:                                               ; preds = %1
  %56 = getelementptr inbounds nuw i8, ptr %0, i64 140
  %57 = getelementptr inbounds nuw i8, ptr %0, i64 148
  %58 = load <2 x float>, ptr %56, align 4
  %59 = load <2 x float>, ptr %57, align 4
  %60 = fsub <2 x float> %58, %59
  %61 = fsub <2 x float> %58, %59
  %62 = fmul <2 x float> %60, %60
  %63 = fmul <2 x float> %61, %61
  %shift64 = shufflevector <2 x float> %63, <2 x float> poison, <2 x i32> <i32 1, i32 poison>
  %64 = fadd <2 x float> %62, %shift64
  %65 = extractelement <2 x float> %64, i64 0
  %sqrt.i57 = tail call float @llvm.sqrt.f32(float %65)
  %66 = fmul float %sqrt.i57, 2.000000e+00
  br label %.loopexit

.loopexit:                                        ; preds = %.lr.ph, %24, %1, %55, %43, %20, %4
  %.0 = phi float [ %66, %55 ], [ %54, %43 ], [ %23, %20 ], [ %19, %4 ], [ 0.000000e+00, %1 ], [ %30, %24 ], [ %42, %.lr.ph ]
  ret float %.0
}